target datalayout = "e-m:e-p270:32:32-p271:32:32-p272:64:64-i64:64-i128:128-f80:128-n8:16:32:64-S128"
target triple = "x86_64-unknown-linux-gnu"

%"struct.std::pair" = type <{ i32, i8, [3 x i8] }>

; Function Attrs: mustprogress nounwind uwtable
define linkonce_odr void @_ZNSt4pairIihEC2IiiTnNSt9enable_ifIXaaclsr5_PCCPE22_MoveConstructiblePairIT_T0_EEclsr5_PCCPE30_ImplicitlyMoveConvertiblePairIS3_S4_EEEbE4typeELb1EEEOS3_OS4_(ptr noundef nonnull align 4 dereferenceable(5) %this, ptr noundef nonnull align 4 dereferenceable(4) %__x, ptr noundef nonnull align 4 dereferenceable(4) %__y) unnamed_addr #0 comdat align 2 {
entry:
  %this.addr = alloca ptr, align 8
  %__x.addr = alloca ptr, align 8
  %__y.addr = alloca ptr, align 8
  store ptr %this, ptr %this.addr, align 8
  store ptr %__x, ptr %__x.addr, align 8
  store ptr %__y, ptr %__y.addr, align 8
  %this1 = load ptr, ptr %this.addr, align 8
  %first = getelementptr inbounds %"struct.std::pair", ptr %this1, i32 0, i32 0
  %0 = load ptr, ptr %__x.addr, align 8
  %1 = load i32, ptr %0, align 4
  store i32 %1, ptr %first, align 4
  %second = getelementptr inbounds %"struct.std::pair", ptr %this1, i32 0, i32 1
  %2 = load ptr, ptr %__y.addr, align 8
  %3 = load i32, ptr %2, align 4
  %conv = trunc i32 %3 to i8
  store i8 %conv, ptr %second, align 4
  ret void
}

; Function Attrs: mustprogress nounwind uwtable
define hidden i64 @_ZN6hermes3hbc14checkBufferTagEPKh(ptr noundef %buff) #0 {
entry:
  %retval = alloca %"struct.std::pair", align 4
  %buff.addr = alloca ptr, align 8
  %keyTag = alloca i8, align 1
  %ref.tmp = alloca i32, align 4
  %ref.tmp5 = alloca i32, align 4
  %ref.tmp8 = alloca i32, align 4
  %ref.tmp11 = alloca i32, align 4
  store ptr %buff, ptr %buff.addr, align 8
  %0 = load ptr, ptr %buff.addr, align 8
  %arrayidx = getelementptr inbounds i8, ptr %0, i64 0
  %1 = load i8, ptr %arrayidx, align 1
  store i8 %1, ptr %keyTag, align 1
  %2 = load i8, ptr %keyTag, align 1
  %conv = zext i8 %2 to i32
  %and = and i32 %conv, 128
  %tobool = icmp ne i32 %and, 0
  br i1 %tobool, label %if.then, label %if.else

if.then:                                          ; preds = %entry
  %3 = load i8, ptr %keyTag, align 1
  %conv1 = zext i8 %3 to i32
  %and2 = and i32 %conv1, 15
  %shl = shl i32 %and2, 8
  %4 = load ptr, ptr %buff.addr, align 8
  %arrayidx3 = getelementptr inbounds i8, ptr %4, i64 1
  %5 = load i8, ptr %arrayidx3, align 1
  %conv4 = zext i8 %5 to i32
  %or = or i32 %shl, %conv4
  store i32 %or, ptr %ref.tmp, align 4
  %6 = load i8, ptr %keyTag, align 1
  %conv6 = zext i8 %6 to i32
  %and7 = and i32 %conv6, 112
  store i32 %and7, ptr %ref.tmp5, align 4
  call void @_ZNSt4pairIihEC2IiiTnNSt9enable_ifIXaaclsr5_PCCPE22_MoveConstructiblePairIT_T0_EEclsr5_PCCPE30_ImplicitlyMoveConvertiblePairIS3_S4_EEEbE4typeELb1EEEOS3_OS4_(ptr noundef nonnull align 4 dereferenceable(5) %retval, ptr noundef nonnull align 4 dereferenceable(4) %ref.tmp, ptr noundef nonnull align 4 dereferenceable(4) %ref.tmp5)
  br label %return

if.else:                                          ; preds = %entry
  %7 = load i8, ptr %keyTag, align 1
  %conv9 = zext i8 %7 to i32
  %and10 = and i32 %conv9, 15
  store i32 %and10, ptr %ref.tmp8, align 4
  %8 = load i8, ptr %keyTag, align 1
  %conv12 = zext i8 %8 to i32
  %and13 = and i32 %conv12, 112
  store i32 %and13, ptr %ref.tmp11, align 4
  call void @_ZNSt4pairIihEC2IiiTnNSt9enable_ifIXaaclsr5_PCCPE22_MoveConstructiblePairIT_T0_EEclsr5_PCCPE30_ImplicitlyMoveConvertiblePairIS3_S4_EEEbE4typeELb1EEEOS3_OS4_(ptr noundef nonnull align 4 dereferenceable(5) %retval, ptr noundef nonnull align 4 dereferenceable(4) %ref.tmp8, ptr noundef nonnull align 4 dereferenceable(4) %ref.tmp11)
  br label %return

return:                                           ; preds = %if.else, %if.then
  %9 = load i64, ptr %retval, align 4
  ret i64 %9
}