; Function Attrs: mustprogress nofree norecurse nosync nounwind willreturn memory(argmem: read) uwtable
define hidden i64 @_ZN6hermes3hbc14checkBufferTagEPKh(ptr nocapture noundef readonly %buff) local_unnamed_addr #0 {
entry:
  %0 = load i8, ptr %buff, align 1
  %conv = zext i8 %0 to i32
  %tobool.not = icmp sgt i8 %0, -1
  br i1 %tobool.not, label %if.else, label %if.then

if.then:                                          ; preds = %entry
  %and2 = shl nuw nsw i32 %conv, 8
  %shl = and i32 %and2, 3840
  %arrayidx3 = getelementptr inbounds i8, ptr %buff, i64 1
  %1 = load i8, ptr %arrayidx3, align 1
  %conv4 = zext i8 %1 to i32
  %or = or disjoint i32 %shl, %conv4
  br label %return

if.else:                                          ; preds = %entry
  %and10 = and i32 %conv, 15
  br label %return

return:                                           ; preds = %if.else, %if.then
  %retval.sroa.0.0 = phi i32 [ %and10, %if.else ], [ %or, %if.then ]
  %retval.sroa.3.0 = and i8 %0, 112
  %retval.sroa.3.0.insert.ext = zext nneg i8 %retval.sroa.3.0 to i64
  %retval.sroa.3.0.insert.shift = shl nuw nsw i64 %retval.sroa.3.0.insert.ext, 32
  %retval.sroa.0.0.insert.ext = zext nneg i32 %retval.sroa.0.0 to i64
  %retval.sroa.0.0.insert.insert = or disjoint i64 %retval.sroa.3.0.insert.shift, %retval.sroa.0.0.insert.ext
  ret i64 %retval.sroa.0.0.insert.insert
}